target datalayout = "e-m:e-p270:32:32-p271:32:32-p272:64:64-i64:64-i128:128-f80:128-n8:16:32:64-S128"
target triple = "x86_64-pc-linux-gnu"

%struct.H5G_loc_t = type { ptr, ptr }
%struct.H5G_loc_sc_t = type { ptr }
%struct.H5O_name_t = type { ptr }

@H5G_init_g = external global i8, align 1
@H5_libterm_g = external global i8, align 1
@.str = private unnamed_addr constant [100 x i8] c"generated/home/dtcxzyw/WorkSpace/Projects/compilers/llvm-opt-benchmark/bench/hdf5/hdf5/src/H5Gloc.c\00", align 1
@H5E_CANTINIT_g = external global i64, align 8
@H5E_SYM_g = external global i64, align 8
@H5E_OHDR_g = external global i64, align 8
@H5E_NOTFOUND_g = external global i64, align 8
@.str.39 = private unnamed_addr constant [19 x i8] c"name doesn't exist\00", align 1
@__func__.H5G__loc_set_comment_cb = private unnamed_addr constant [24 x i8] c"H5G__loc_set_comment_cb\00", align 1
@.str.41 = private unnamed_addr constant [29 x i8] c"unable to read object header\00", align 1
@H5E_CANTDELETE_g = external global i64, align 8
@.str.42 = private unnamed_addr constant [56 x i8] c"unable to delete existing comment object header message\00", align 1
@H5E_RESOURCE_g = external global i64, align 8
@H5E_CANTALLOC_g = external global i64, align 8
@.str.43 = private unnamed_addr constant [25 x i8] c"can't copy group comment\00", align 1
@.str.44 = private unnamed_addr constant [44 x i8] c"unable to set comment object header message\00", align 1

; Function Attrs: nounwind uwtable
define internal i32 @H5G__loc_set_comment_cb(ptr noundef %0, ptr noundef %1, ptr noundef %2, ptr noundef %3, ptr noundef %4, ptr noundef %5) #0 {
  %7 = alloca ptr, align 8
  %8 = alloca ptr, align 8
  %9 = alloca ptr, align 8
  %10 = alloca ptr, align 8
  %11 = alloca ptr, align 8
  %12 = alloca ptr, align 8
  %13 = alloca ptr, align 8
  %14 = alloca %struct.H5O_name_t, align 8
  %15 = alloca i32, align 4
  %16 = alloca i32, align 4
  %17 = alloca i8, align 1
  store ptr %0, ptr %7, align 8, !tbaa !9
  store ptr %1, ptr %8, align 8, !tbaa !32
  store ptr %2, ptr %9, align 8, !tbaa !37
  store ptr %3, ptr %10, align 8, !tbaa !9
  store ptr %4, ptr %11, align 8, !tbaa !3
  store ptr %5, ptr %12, align 8, !tbaa !39
  call void @llvm.lifetime.start.p0(i64 8, ptr %13) #7
  %18 = load ptr, ptr %11, align 8, !tbaa !3
  store ptr %18, ptr %13, align 8, !tbaa !3
  call void @llvm.lifetime.start.p0(i64 8, ptr %14) #7
  call void @llvm.memset.p0.i64(ptr align 8 %14, i8 0, i64 8, i1 false)
  call void @llvm.lifetime.start.p0(i64 4, ptr %15) #7
  call void @llvm.lifetime.start.p0(i64 4, ptr %16) #7
  store i32 0, ptr %16, align 4, !tbaa !7
  call void @llvm.lifetime.start.p0(i64 1, ptr %17) #7
  store i8 0, ptr %17, align 1, !tbaa !11
  %19 = load i8, ptr @H5G_init_g, align 1, !tbaa !11, !range !13, !noundef !14
  %20 = trunc i8 %19 to i1
  br i1 %20, label %25, label %21

21:                                               ; preds = %6
  %22 = load i8, ptr @H5_libterm_g, align 1, !tbaa !11, !range !13, !noundef !14
  %23 = trunc i8 %22 to i1
  %24 = xor i1 %23, true
  br label %25

25:                                               ; preds = %21, %6
  %26 = phi i1 [ true, %6 ], [ %24, %21 ]
  %27 = xor i1 %26, true
  %28 = xor i1 %27, true
  %29 = zext i1 %28 to i32
  %30 = sext i32 %29 to i64
  %31 = call i64 @llvm.expect.i64(i64 %30, i64 1)
  %32 = icmp ne i64 %31, 0
  br i1 %32, label %33, label %178

33:                                               ; preds = %25
  %34 = load ptr, ptr %10, align 8, !tbaa !9
  %35 = icmp eq ptr %34, null
  br i1 %35, label %36, label %55

36:                                               ; preds = %33
  br label %37

37:                                               ; preds = %36
  br label %38

38:                                               ; preds = %37
  br label %39

39:                                               ; preds = %38
  %40 = load i64, ptr @H5E_SYM_g, align 8, !tbaa !15
  %41 = load i64, ptr @H5E_NOTFOUND_g, align 8, !tbaa !15
  %42 = call i32 (ptr, ptr, i32, i64, i64, ptr, ...) @H5E_printf_stack(ptr noundef @.str, ptr noundef @__func__.H5G__loc_set_comment_cb, i32 noundef 854, i64 noundef %40, i64 noundef %41, ptr noundef @.str.39)
  br label %43

43:                                               ; preds = %39
  br label %44

44:                                               ; preds = %43
  store i8 1, ptr %17, align 1, !tbaa !11
  %45 = load i8, ptr %17, align 1, !tbaa !11, !range !13, !noundef !14
  %46 = trunc i8 %45 to i1
  %47 = zext i1 %46 to i8
  store i8 %47, ptr %17, align 1, !tbaa !11
  br label %48

48:                                               ; preds = %44
  br label %49

49:                                               ; preds = %48
  br label %50

50:                                               ; preds = %49
  store i32 -1, ptr %16, align 4, !tbaa !7
  br label %174

51:                                               ; No predecessors!
  br label %52

52:                                               ; preds = %51
  br label %53

53:                                               ; preds = %52
  br label %54

54:                                               ; preds = %53
  br label %55

55:                                               ; preds = %54, %33
  %56 = load ptr, ptr %10, align 8, !tbaa !9
  %57 = getelementptr inbounds nuw %struct.H5G_loc_t, ptr %56, i32 0, i32 0
  %58 = load ptr, ptr %57, align 8, !tbaa !21
  %59 = call i32 @H5O_msg_exists(ptr noundef %58, i32 noundef 13)
  store i32 %59, ptr %15, align 4, !tbaa !7
  %60 = icmp slt i32 %59, 0
  br i1 %60, label %61, label %80

61:                                               ; preds = %55
  br label %62

62:                                               ; preds = %61
  br label %63

63:                                               ; preds = %62
  br label %64

64:                                               ; preds = %63
  %65 = load i64, ptr @H5E_SYM_g, align 8, !tbaa !15
  %66 = load i64, ptr @H5E_NOTFOUND_g, align 8, !tbaa !15
  %67 = call i32 (ptr, ptr, i32, i64, i64, ptr, ...) @H5E_printf_stack(ptr noundef @.str, ptr noundef @__func__.H5G__loc_set_comment_cb, i32 noundef 858, i64 noundef %65, i64 noundef %66, ptr noundef @.str.41)
  br label %68

68:                                               ; preds = %64
  br label %69

69:                                               ; preds = %68
  store i8 1, ptr %17, align 1, !tbaa !11
  %70 = load i8, ptr %17, align 1, !tbaa !11, !range !13, !noundef !14
  %71 = trunc i8 %70 to i1
  %72 = zext i1 %71 to i8
  store i8 %72, ptr %17, align 1, !tbaa !11
  br label %73

73:                                               ; preds = %69
  br label %74

74:                                               ; preds = %73
  br label %75

75:                                               ; preds = %74
  store i32 -1, ptr %16, align 4, !tbaa !7
  br label %174

76:                                               ; No predecessors!
  br label %77

77:                                               ; preds = %76
  br label %78

78:                                               ; preds = %77
  br label %79

79:                                               ; preds = %78
  br label %80

80:                                               ; preds = %79, %55
  %81 = load i32, ptr %15, align 4, !tbaa !7
  %82 = icmp ne i32 %81, 0
  br i1 %82, label %83, label %109

83:                                               ; preds = %80
  %84 = load ptr, ptr %10, align 8, !tbaa !9
  %85 = getelementptr inbounds nuw %struct.H5G_loc_t, ptr %84, i32 0, i32 0
  %86 = load ptr, ptr %85, align 8, !tbaa !21
  %87 = call i32 @H5O_msg_remove(ptr noundef %86, i32 noundef 13, i32 noundef 0, i1 noundef zeroext true)
  %88 = icmp slt i32 %87, 0
  br i1 %88, label %89, label %108

89:                                               ; preds = %83
  br label %90

90:                                               ; preds = %89
  br label %91

91:                                               ; preds = %90
  br label %92

92:                                               ; preds = %91
  %93 = load i64, ptr @H5E_SYM_g, align 8, !tbaa !15
  %94 = load i64, ptr @H5E_CANTDELETE_g, align 8, !tbaa !15
  %95 = call i32 (ptr, ptr, i32, i64, i64, ptr, ...) @H5E_printf_stack(ptr noundef @.str, ptr noundef @__func__.H5G__loc_set_comment_cb, i32 noundef 864, i64 noundef %93, i64 noundef %94, ptr noundef @.str.42)
  br label %96

96:                                               ; preds = %92
  br label %97

97:                                               ; preds = %96
  store i8 1, ptr %17, align 1, !tbaa !11
  %98 = load i8, ptr %17, align 1, !tbaa !11, !range !13, !noundef !14
  %99 = trunc i8 %98 to i1
  %100 = zext i1 %99 to i8
  store i8 %100, ptr %17, align 1, !tbaa !11
  br label %101

101:                                              ; preds = %97
  br label %102

102:                                              ; preds = %101
  br label %103

103:                                              ; preds = %102
  store i32 -1, ptr %16, align 4, !tbaa !7
  br label %174

104:                                              ; No predecessors!
  br label %105

105:                                              ; preds = %104
  br label %106

106:                                              ; preds = %105
  br label %107

107:                                              ; preds = %106
  br label %108

108:                                              ; preds = %107, %83
  br label %109

109:                                              ; preds = %108, %80
  %110 = load ptr, ptr %13, align 8, !tbaa !3
  %111 = getelementptr inbounds nuw %struct.H5G_loc_sc_t, ptr %110, i32 0, i32 0
  %112 = load ptr, ptr %111, align 8, !tbaa !68
  %113 = icmp ne ptr %112, null
  br i1 %113, label %114, label %173

114:                                              ; preds = %109
  %115 = load ptr, ptr %13, align 8, !tbaa !3
  %116 = getelementptr inbounds nuw %struct.H5G_loc_sc_t, ptr %115, i32 0, i32 0
  %117 = load ptr, ptr %116, align 8, !tbaa !68
  %118 = load i8, ptr %117, align 1, !tbaa !34
  %119 = sext i8 %118 to i32
  %120 = icmp ne i32 %119, 0
  br i1 %120, label %121, label %173

121:                                              ; preds = %114
  %122 = load ptr, ptr %13, align 8, !tbaa !3
  %123 = getelementptr inbounds nuw %struct.H5G_loc_sc_t, ptr %122, i32 0, i32 0
  %124 = load ptr, ptr %123, align 8, !tbaa !68
  %125 = call noalias ptr @strdup(ptr noundef %124) #7
  %126 = getelementptr inbounds nuw %struct.H5O_name_t, ptr %14, i32 0, i32 0
  store ptr %125, ptr %126, align 8, !tbaa !70
  %127 = icmp eq ptr null, %125
  br i1 %127, label %128, label %147

128:                                              ; preds = %121
  br label %129

129:                                              ; preds = %128
  br label %130

130:                                              ; preds = %129
  br label %131

131:                                              ; preds = %130
  %132 = load i64, ptr @H5E_RESOURCE_g, align 8, !tbaa !15
  %133 = load i64, ptr @H5E_CANTALLOC_g, align 8, !tbaa !15
  %134 = call i32 (ptr, ptr, i32, i64, i64, ptr, ...) @H5E_printf_stack(ptr noundef @.str, ptr noundef @__func__.H5G__loc_set_comment_cb, i32 noundef 869, i64 noundef %132, i64 noundef %133, ptr noundef @.str.43)
  br label %135

135:                                              ; preds = %131
  br label %136

136:                                              ; preds = %135
  store i8 1, ptr %17, align 1, !tbaa !11
  %137 = load i8, ptr %17, align 1, !tbaa !11, !range !13, !noundef !14
  %138 = trunc i8 %137 to i1
  %139 = zext i1 %138 to i8
  store i8 %139, ptr %17, align 1, !tbaa !11
  br label %140

140:                                              ; preds = %136
  br label %141

141:                                              ; preds = %140
  br label %142

142:                                              ; preds = %141
  store i32 -1, ptr %16, align 4, !tbaa !7
  br label %174

143:                                              ; No predecessors!
  br label %144

144:                                              ; preds = %143
  br label %145

145:                                              ; preds = %144
  br label %146

146:                                              ; preds = %145
  br label %147

147:                                              ; preds = %146, %121
  %148 = load ptr, ptr %10, align 8, !tbaa !9
  %149 = getelementptr inbounds nuw %struct.H5G_loc_t, ptr %148, i32 0, i32 0
  %150 = load ptr, ptr %149, align 8, !tbaa !21
  %151 = call i32 @H5O_msg_create(ptr noundef %150, i32 noundef 13, i32 noundef 0, i32 noundef 1, ptr noundef %14)
  %152 = icmp slt i32 %151, 0
  br i1 %152, label %153, label %172

153:                                              ; preds = %147
  br label %154

154:                                              ; preds = %153
  br label %155

155:                                              ; preds = %154
  br label %156

156:                                              ; preds = %155
  %157 = load i64, ptr @H5E_OHDR_g, align 8, !tbaa !15
  %158 = load i64, ptr @H5E_CANTINIT_g, align 8, !tbaa !15
  %159 = call i32 (ptr, ptr, i32, i64, i64, ptr, ...) @H5E_printf_stack(ptr noundef @.str, ptr noundef @__func__.H5G__loc_set_comment_cb, i32 noundef 871, i64 noundef %157, i64 noundef %158, ptr noundef @.str.44)
  br label %160

160:                                              ; preds = %156
  br label %161

161:                                              ; preds = %160
  store i8 1, ptr %17, align 1, !tbaa !11
  %162 = load i8, ptr %17, align 1, !tbaa !11, !range !13, !noundef !14
  %163 = trunc i8 %162 to i1
  %164 = zext i1 %163 to i8
  store i8 %164, ptr %17, align 1, !tbaa !11
  br label %165

165:                                              ; preds = %161
  br label %166

166:                                              ; preds = %165
  br label %167

167:                                              ; preds = %166
  store i32 -1, ptr %16, align 4, !tbaa !7
  br label %174

168:                                              ; No predecessors!
  br label %169

169:                                              ; preds = %168
  br label %170

170:                                              ; preds = %169
  br label %171

171:                                              ; preds = %170
  br label %172

172:                                              ; preds = %171, %147
  br label %173

173:                                              ; preds = %172, %114, %109
  br label %174

174:                                              ; preds = %173, %167, %142, %103, %75, %50
  %175 = getelementptr inbounds nuw %struct.H5O_name_t, ptr %14, i32 0, i32 0
  %176 = load ptr, ptr %175, align 8, !tbaa !70
  call void @free(ptr noundef %176) #7
  %177 = load ptr, ptr %12, align 8, !tbaa !39
  store i32 0, ptr %177, align 4, !tbaa !7
  br label %178

178:                                              ; preds = %174, %25
  %179 = load i32, ptr %16, align 4, !tbaa !7
  call void @llvm.lifetime.end.p0(i64 1, ptr %17) #7
  call void @llvm.lifetime.end.p0(i64 4, ptr %16) #7
  call void @llvm.lifetime.end.p0(i64 4, ptr %15) #7
  call void @llvm.lifetime.end.p0(i64 8, ptr %14) #7
  call void @llvm.lifetime.end.p0(i64 8, ptr %13) #7
  ret i32 %179
}