; Function Attrs: nounwind uwtable
define internal range(i32 -1, 1) i32 @H5G__loc_set_comment_cb(ptr readnone captures(none) %0, ptr readnone captures(none) %1, ptr readnone captures(none) %2, ptr noundef readonly captures(address_is_null) %3, ptr noundef readonly captures(none) %4, ptr noundef writeonly captures(none) %5) #0 {
  %7 = alloca %struct.H5O_name_t, align 8
  call void @llvm.lifetime.start.p0(i64 8, ptr nonnull %7) #9
  store i64 0, ptr %7, align 8
  %8 = load i8, ptr @H5G_init_g, align 1, !tbaa !3, !range !7, !noundef !8
  %9 = trunc nuw i8 %8 to i1
  %10 = load i8, ptr @H5_libterm_g, align 1, !range !7
  %11 = trunc nuw i8 %10 to i1
  %12 = xor i1 %11, true
  %13 = select i1 %9, i1 true, i1 %12
  br i1 %13, label %14, label %58, !prof !9

14:                                               ; preds = %6
  %15 = icmp eq ptr %3, null
  br i1 %15, label %16, label %20

16:                                               ; preds = %14
  %17 = load i64, ptr @H5E_SYM_g, align 8, !tbaa !10
  %18 = load i64, ptr @H5E_NOTFOUND_g, align 8, !tbaa !10
  %19 = tail call i32 (ptr, ptr, i32, i64, i64, ptr, ...) @H5E_printf_stack(ptr noundef nonnull @.str, ptr noundef nonnull @__func__.H5G__loc_set_comment_cb, i32 noundef 854, i64 noundef %17, i64 noundef %18, ptr noundef nonnull @.str.39) #9
  br label %56

20:                                               ; preds = %14
  %21 = load ptr, ptr %3, align 8, !tbaa !12
  %22 = tail call i32 @H5O_msg_exists(ptr noundef %21, i32 noundef 13) #9
  %23 = icmp slt i32 %22, 0
  br i1 %23, label %24, label %28

24:                                               ; preds = %20
  %25 = load i64, ptr @H5E_SYM_g, align 8, !tbaa !10
  %26 = load i64, ptr @H5E_NOTFOUND_g, align 8, !tbaa !10
  %27 = tail call i32 (ptr, ptr, i32, i64, i64, ptr, ...) @H5E_printf_stack(ptr noundef nonnull @.str, ptr noundef nonnull @__func__.H5G__loc_set_comment_cb, i32 noundef 858, i64 noundef %25, i64 noundef %26, ptr noundef nonnull @.str.41) #9
  br label %56

28:                                               ; preds = %20
  %.not = icmp eq i32 %22, 0
  br i1 %.not, label %37, label %29

29:                                               ; preds = %28
  %30 = load ptr, ptr %3, align 8, !tbaa !12
  %31 = tail call i32 @H5O_msg_remove(ptr noundef %30, i32 noundef 13, i32 noundef 0, i1 noundef zeroext true) #9
  %32 = icmp slt i32 %31, 0
  br i1 %32, label %33, label %37

33:                                               ; preds = %29
  %34 = load i64, ptr @H5E_SYM_g, align 8, !tbaa !10
  %35 = load i64, ptr @H5E_CANTDELETE_g, align 8, !tbaa !10
  %36 = tail call i32 (ptr, ptr, i32, i64, i64, ptr, ...) @H5E_printf_stack(ptr noundef nonnull @.str, ptr noundef nonnull @__func__.H5G__loc_set_comment_cb, i32 noundef 864, i64 noundef %34, i64 noundef %35, ptr noundef nonnull @.str.42) #9
  br label %56

37:                                               ; preds = %29, %28
  %38 = load ptr, ptr %4, align 8, !tbaa !47
  %.not18 = icmp eq ptr %38, null
  br i1 %.not18, label %56, label %39

39:                                               ; preds = %37
  %40 = load i8, ptr %38, align 1, !tbaa !18
  %.not19 = icmp eq i8 %40, 0
  br i1 %.not19, label %56, label %41

41:                                               ; preds = %39
  %42 = tail call noalias ptr @strdup(ptr noundef nonnull %38) #9
  store ptr %42, ptr %7, align 8, !tbaa !49
  %43 = icmp eq ptr %42, null
  br i1 %43, label %44, label %48

44:                                               ; preds = %41
  %45 = load i64, ptr @H5E_RESOURCE_g, align 8, !tbaa !10
  %46 = load i64, ptr @H5E_CANTALLOC_g, align 8, !tbaa !10
  %47 = tail call i32 (ptr, ptr, i32, i64, i64, ptr, ...) @H5E_printf_stack(ptr noundef nonnull @.str, ptr noundef nonnull @__func__.H5G__loc_set_comment_cb, i32 noundef 869, i64 noundef %45, i64 noundef %46, ptr noundef nonnull @.str.43) #9
  br label %56

48:                                               ; preds = %41
  %49 = load ptr, ptr %3, align 8, !tbaa !12
  %50 = call i32 @H5O_msg_create(ptr noundef %49, i32 noundef 13, i32 noundef 0, i32 noundef 1, ptr noundef nonnull %7) #9
  %51 = icmp slt i32 %50, 0
  br i1 %51, label %52, label %56

52:                                               ; preds = %48
  %53 = load i64, ptr @H5E_OHDR_g, align 8, !tbaa !10
  %54 = load i64, ptr @H5E_CANTINIT_g, align 8, !tbaa !10
  %55 = call i32 (ptr, ptr, i32, i64, i64, ptr, ...) @H5E_printf_stack(ptr noundef nonnull @.str, ptr noundef nonnull @__func__.H5G__loc_set_comment_cb, i32 noundef 871, i64 noundef %53, i64 noundef %54, ptr noundef nonnull @.str.44) #9
  br label %56

56:                                               ; preds = %37, %39, %48, %52, %44, %33, %24, %16
  %.1 = phi i32 [ -1, %16 ], [ -1, %24 ], [ -1, %33 ], [ -1, %44 ], [ -1, %52 ], [ 0, %48 ], [ 0, %39 ], [ 0, %37 ]
  %57 = load ptr, ptr %7, align 8, !tbaa !49
  call void @free(ptr noundef %57) #9
  store i32 0, ptr %5, align 4, !tbaa !22
  br label %58

58:                                               ; preds = %56, %6
  %.0 = phi i32 [ %.1, %56 ], [ 0, %6 ]
  call void @llvm.lifetime.end.p0(i64 8, ptr nonnull %7) #9
  ret i32 %.0
}